target datalayout = "e-m:e-p270:32:32-p271:32:32-p272:64:64-i64:64-i128:128-f80:128-n8:16:32:64-S128"
target triple = "x86_64-pc-linux-gnu"

%struct.FunctionCallInfoBaseData = type { ptr, ptr, ptr, i32, i8, i16, [0 x %struct.NullableDatum] }
%struct.NullableDatum = type { i64, i8 }

; Function Attrs: nounwind uwtable
define dso_local i64 @jsonb_build_object(ptr noundef %0) #0 {
  %2 = alloca i64, align 8
  %3 = alloca ptr, align 8
  %4 = alloca ptr, align 8
  %5 = alloca ptr, align 8
  %6 = alloca ptr, align 8
  %7 = alloca i32, align 4
  %8 = alloca i32, align 4
  store ptr %0, ptr %3, align 8
  call void @llvm.lifetime.start.p0(i64 8, ptr %4) #8
  call void @llvm.lifetime.start.p0(i64 8, ptr %5) #8
  call void @llvm.lifetime.start.p0(i64 8, ptr %6) #8
  call void @llvm.lifetime.start.p0(i64 4, ptr %7) #8
  %9 = load ptr, ptr %3, align 8
  %10 = call i32 @extract_variadic_args(ptr noundef %9, i32 noundef 0, i1 noundef zeroext true, ptr noundef %4, ptr noundef %6, ptr noundef %5)
  store i32 %10, ptr %7, align 4
  %11 = load i32, ptr %7, align 4
  %12 = icmp slt i32 %11, 0
  br i1 %12, label %13, label %19

13:                                               ; preds = %1
  br label %14

14:                                               ; preds = %13
  %15 = load ptr, ptr %3, align 8
  %16 = getelementptr inbounds nuw %struct.FunctionCallInfoBaseData, ptr %15, i32 0, i32 4
  store i8 1, ptr %16, align 4
  store i64 0, ptr %2, align 8
  store i32 1, ptr %8, align 4
  br label %25

17:                                               ; No predecessors!
  br label %18

18:                                               ; preds = %17
  br label %19

19:                                               ; preds = %18, %1
  %20 = load i32, ptr %7, align 4
  %21 = load ptr, ptr %4, align 8
  %22 = load ptr, ptr %5, align 8
  %23 = load ptr, ptr %6, align 8
  %24 = call i64 @jsonb_build_object_worker(i32 noundef %20, ptr noundef %21, ptr noundef %22, ptr noundef %23, i1 noundef zeroext false, i1 noundef zeroext false)
  store i64 %24, ptr %2, align 8
  store i32 1, ptr %8, align 4
  br label %25

25:                                               ; preds = %19, %14
  call void @llvm.lifetime.end.p0(i64 4, ptr %7) #8
  call void @llvm.lifetime.end.p0(i64 8, ptr %6) #8
  call void @llvm.lifetime.end.p0(i64 8, ptr %5) #8
  call void @llvm.lifetime.end.p0(i64 8, ptr %4) #8
  %26 = load i64, ptr %2, align 8
  ret i64 %26
}